; Function Attrs: mustprogress uwtable
define void @_ZN5arrow12ArrayBuilder14CheckArrayTypeENS_4Type4typeERKNS_5ArrayEPKc(ptr noalias sret(%"class.arrow::Status") align 8 %agg.result, ptr nocapture noundef nonnull readnone align 8 dereferenceable(144) %this, i32 noundef %expected_type, ptr nocapture noundef nonnull readonly align 8 dereferenceable(32) %array, ptr noundef %message) local_unnamed_addr #0 align 2 {
entry:
  %message.addr = alloca ptr, align 8
  store ptr %message, ptr %message.addr, align 8
  %data_.i = getelementptr inbounds i8, ptr %array, i64 8
  %0 = load ptr, ptr %data_.i, align 8
  %1 = load ptr, ptr %0, align 8
  %id_.i.i = getelementptr inbounds i8, ptr %1, i64 40
  %2 = load i32, ptr %id_.i.i, align 8
  %cmp.not = icmp eq i32 %2, %expected_type
  br i1 %cmp.not, label %if.end, label %if.then

if.then:                                          ; preds = %entry
  call void @_ZN5arrow6Status8FromArgsIJRPKcEEES0_NS_10StatusCodeEDpOT_(ptr sret(%"class.arrow::Status") align 8 %agg.result, i8 noundef signext 3, ptr noundef nonnull align 8 dereferenceable(8) %message.addr)
  br label %return

if.end:                                           ; preds = %entry
  store ptr null, ptr %agg.result, align 8, !alias.scope !7
  br label %return

return:                                           ; preds = %if.end, %if.then
  ret void
}